; Function Attrs: mustprogress uwtable
define hidden noundef i32 @_ZN2cv8ximgproc19RICInterpolatorImpl15overSegmentaionERKNS_3MatERS2_i(ptr noundef nonnull readonly align 8 captures(none) dereferenceable(480) %0, ptr noundef nonnull align 8 dereferenceable(96) %1, ptr noundef nonnull align 8 dereferenceable(96) %2, i32 noundef %3) local_unnamed_addr #3 align 2 personality ptr @__gxx_personality_v0 {
  %5 = alloca %"class.cv::Mat", align 8
  %6 = alloca %"class.cv::_InputArray", align 8
  %7 = alloca %"class.cv::_OutputArray", align 8
  %8 = alloca %"struct.cv::Ptr.36", align 8
  %9 = alloca %"class.cv::_InputArray", align 8
  %10 = alloca %"class.cv::_OutputArray", align 8
  call void @llvm.lifetime.start.p0(i64 96, ptr nonnull %5) #31
  call void @_ZN2cv3MatC1Ev(ptr noundef nonnull align 8 dereferenceable(96) %5) #31
  call void @llvm.lifetime.start.p0(i64 24, ptr nonnull %6) #31
  %11 = getelementptr inbounds nuw i8, ptr %6, i64 16
  store i32 0, ptr %11, align 8, !tbaa !83
  %12 = getelementptr inbounds nuw i8, ptr %6, i64 20
  store i32 0, ptr %12, align 4, !tbaa !84
  store i32 16842752, ptr %6, align 8, !tbaa !85
  %13 = getelementptr inbounds nuw i8, ptr %6, i64 8
  store ptr %1, ptr %13, align 8, !tbaa !57
  call void @llvm.lifetime.start.p0(i64 24, ptr nonnull %7) #31
  %14 = getelementptr inbounds nuw i8, ptr %7, i64 8
  %15 = getelementptr inbounds nuw i8, ptr %7, i64 16
  store i64 0, ptr %15, align 8
  store i32 33619968, ptr %7, align 8, !tbaa !85
  store ptr %5, ptr %14, align 8, !tbaa !57
  invoke void @_ZN2cv8cvtColorERKNS_11_InputArrayERKNS_12_OutputArrayEiiNS_13AlgorithmHintE(ptr noundef nonnull align 8 dereferenceable(24) %6, ptr noundef nonnull align 8 dereferenceable(24) %7, i32 noundef 44, i32 noundef 0, i32 noundef 0)
          to label %16 unwind label %66

16:                                               ; preds = %4
  call void @llvm.lifetime.end.p0(i64 24, ptr nonnull %7) #31
  call void @llvm.lifetime.end.p0(i64 24, ptr nonnull %6) #31
  call void @llvm.lifetime.start.p0(i64 16, ptr nonnull %8) #31
  call void @llvm.lifetime.start.p0(i64 24, ptr nonnull %9) #31
  %17 = getelementptr inbounds nuw i8, ptr %9, i64 16
  store i32 0, ptr %17, align 8, !tbaa !83
  %18 = getelementptr inbounds nuw i8, ptr %9, i64 20
  store i32 0, ptr %18, align 4, !tbaa !84
  store i32 16842752, ptr %9, align 8, !tbaa !85
  %19 = getelementptr inbounds nuw i8, ptr %9, i64 8
  store ptr %5, ptr %19, align 8, !tbaa !57
  %20 = getelementptr inbounds nuw i8, ptr %0, i64 476
  %21 = load i32, ptr %20, align 4, !tbaa !275
  %22 = getelementptr inbounds nuw i8, ptr %0, i64 444
  %23 = load float, ptr %22, align 4, !tbaa !266
  invoke void @_ZN2cv8ximgproc20createSuperpixelSLICERKNS_11_InputArrayEiif(ptr dead_on_unwind nonnull writable sret(%"struct.cv::Ptr.36") align 8 %8, ptr noundef nonnull align 8 dereferenceable(24) %9, i32 noundef %21, i32 noundef %3, float noundef %23)
          to label %24 unwind label %68

24:                                               ; preds = %16
  call void @llvm.lifetime.end.p0(i64 24, ptr nonnull %9) #31
  %25 = load ptr, ptr %8, align 8, !tbaa !415
  %26 = load ptr, ptr %25, align 8, !tbaa !29
  %27 = getelementptr inbounds nuw i8, ptr %26, i64 72
  %28 = load ptr, ptr %27, align 8
  invoke void %28(ptr noundef nonnull align 8 dereferenceable(8) %25, i32 noundef 5)
          to label %29 unwind label %70

29:                                               ; preds = %24
  %30 = load ptr, ptr %8, align 8, !tbaa !415
  call void @llvm.lifetime.start.p0(i64 24, ptr nonnull %10) #31
  %31 = getelementptr inbounds nuw i8, ptr %10, i64 8
  %32 = getelementptr inbounds nuw i8, ptr %10, i64 16
  store i64 0, ptr %32, align 8
  store i32 33619968, ptr %10, align 8, !tbaa !85
  store ptr %2, ptr %31, align 8, !tbaa !57
  %33 = load ptr, ptr %30, align 8, !tbaa !29
  %34 = getelementptr inbounds nuw i8, ptr %33, i64 80
  %35 = load ptr, ptr %34, align 8
  invoke void %35(ptr noundef nonnull align 8 dereferenceable(8) %30, ptr noundef nonnull align 8 dereferenceable(24) %10)
          to label %36 unwind label %72

36:                                               ; preds = %29
  call void @llvm.lifetime.end.p0(i64 24, ptr nonnull %10) #31
  %37 = load ptr, ptr %8, align 8, !tbaa !415
  %38 = load ptr, ptr %37, align 8, !tbaa !29
  %39 = getelementptr inbounds nuw i8, ptr %38, i64 64
  %40 = load ptr, ptr %39, align 8
  %41 = invoke noundef i32 %40(ptr noundef nonnull align 8 dereferenceable(8) %37)
          to label %42 unwind label %70

42:                                               ; preds = %36
  %43 = getelementptr inbounds nuw i8, ptr %8, i64 8
  %44 = load ptr, ptr %43, align 8, !tbaa !39
  %.not.i.i = icmp eq ptr %44, null
  br i1 %.not.i.i, label %_ZNSt12__shared_ptrIN2cv8ximgproc14SuperpixelSLICELN9__gnu_cxx12_Lock_policyE2EED2Ev.exit, label %45

45:                                               ; preds = %42
  %46 = getelementptr inbounds nuw i8, ptr %44, i64 8
  %47 = load atomic i64, ptr %46 acquire, align 8
  %48 = icmp eq i64 %47, 4294967297
  %49 = trunc i64 %47 to i32
  br i1 %48, label %50, label %58

50:                                               ; preds = %45
  store i32 0, ptr %46, align 8, !tbaa !40
  %51 = getelementptr inbounds nuw i8, ptr %44, i64 12
  store i32 0, ptr %51, align 4, !tbaa !42
  %52 = load ptr, ptr %44, align 8, !tbaa !29
  %53 = getelementptr inbounds nuw i8, ptr %52, i64 16
  %54 = load ptr, ptr %53, align 8
  call void %54(ptr noundef nonnull align 8 dereferenceable(16) %44) #31
  %55 = load ptr, ptr %44, align 8, !tbaa !29
  %56 = getelementptr inbounds nuw i8, ptr %55, i64 24
  %57 = load ptr, ptr %56, align 8
  call void %57(ptr noundef nonnull align 8 dereferenceable(16) %44) #31
  br label %_ZNSt12__shared_ptrIN2cv8ximgproc14SuperpixelSLICELN9__gnu_cxx12_Lock_policyE2EED2Ev.exit

58:                                               ; preds = %45
  %59 = load i8, ptr @__libc_single_threaded, align 1, !tbaa !231
  %.not.i.i.i = icmp eq i8 %59, 0
  br i1 %.not.i.i.i, label %62, label %60

60:                                               ; preds = %58
  %61 = add nsw i32 %49, -1
  store i32 %61, ptr %46, align 4, !tbaa !68
  br label %_ZN9__gnu_cxx27__exchange_and_add_dispatchEPii.exit.i.i.i

62:                                               ; preds = %58
  %63 = atomicrmw volatile add ptr %46, i32 -1 acq_rel, align 4
  br label %_ZN9__gnu_cxx27__exchange_and_add_dispatchEPii.exit.i.i.i

_ZN9__gnu_cxx27__exchange_and_add_dispatchEPii.exit.i.i.i: ; preds = %62, %60
  %.0.i.i.i.i = phi i32 [ %49, %60 ], [ %63, %62 ]
  %64 = icmp eq i32 %.0.i.i.i.i, 1
  br i1 %64, label %65, label %_ZNSt12__shared_ptrIN2cv8ximgproc14SuperpixelSLICELN9__gnu_cxx12_Lock_policyE2EED2Ev.exit, !prof !334

65:                                               ; preds = %_ZN9__gnu_cxx27__exchange_and_add_dispatchEPii.exit.i.i.i
  call void @_ZNSt16_Sp_counted_baseILN9__gnu_cxx12_Lock_policyE2EE24_M_release_last_use_coldEv(ptr noundef nonnull align 8 dereferenceable(16) %44) #31
  br label %_ZNSt12__shared_ptrIN2cv8ximgproc14SuperpixelSLICELN9__gnu_cxx12_Lock_policyE2EED2Ev.exit

_ZNSt12__shared_ptrIN2cv8ximgproc14SuperpixelSLICELN9__gnu_cxx12_Lock_policyE2EED2Ev.exit: ; preds = %42, %50, %_ZN9__gnu_cxx27__exchange_and_add_dispatchEPii.exit.i.i.i, %65
  call void @llvm.lifetime.end.p0(i64 16, ptr nonnull %8) #31
  call void @_ZN2cv3MatD1Ev(ptr noundef nonnull align 8 dereferenceable(96) %5) #31
  call void @llvm.lifetime.end.p0(i64 96, ptr nonnull %5) #31
  ret i32 %41

66:                                               ; preds = %4
  %67 = landingpad { ptr, i32 }
          cleanup
  call void @llvm.lifetime.end.p0(i64 24, ptr nonnull %7) #31
  call void @llvm.lifetime.end.p0(i64 24, ptr nonnull %6) #31
  br label %76

68:                                               ; preds = %16
  %69 = landingpad { ptr, i32 }
          cleanup
  call void @llvm.lifetime.end.p0(i64 24, ptr nonnull %9) #31
  br label %75

70:                                               ; preds = %36, %24
  %71 = landingpad { ptr, i32 }
          cleanup
  br label %74

72:                                               ; preds = %29
  %73 = landingpad { ptr, i32 }
          cleanup
  call void @llvm.lifetime.end.p0(i64 24, ptr nonnull %10) #31
  br label %74

74:                                               ; preds = %72, %70
  %.pn18 = phi { ptr, i32 } [ %71, %70 ], [ %73, %72 ]
  call void @_ZNSt12__shared_ptrIN2cv8ximgproc14SuperpixelSLICELN9__gnu_cxx12_Lock_policyE2EED2Ev(ptr noundef nonnull align 8 dereferenceable(16) %8) #31
  br label %75

75:                                               ; preds = %74, %68
  %.pn18.pn = phi { ptr, i32 } [ %.pn18, %74 ], [ %69, %68 ]
  call void @llvm.lifetime.end.p0(i64 16, ptr nonnull %8) #31
  br label %76

76:                                               ; preds = %75, %66
  %.pn18.pn.pn = phi { ptr, i32 } [ %.pn18.pn, %75 ], [ %67, %66 ]
  call void @_ZN2cv3MatD1Ev(ptr noundef nonnull align 8 dereferenceable(96) %5) #31
  call void @llvm.lifetime.end.p0(i64 96, ptr nonnull %5) #31
  resume { ptr, i32 } %.pn18.pn.pn
}